target datalayout = "e-m:e-p270:32:32-p271:32:32-p272:64:64-i64:64-i128:128-f80:128-n8:16:32:64-S128"
target triple = "x86_64-pc-linux-gnu"

%"class.std::__cxx11::basic_string" = type { %"struct.std::__cxx11::basic_string<char>::_Alloc_hider", i64, %union.anon }
%"struct.std::__cxx11::basic_string<char>::_Alloc_hider" = type { ptr }
%union.anon = type { i64, [8 x i8] }
%"class.rocksdb::Slice" = type { ptr, i64 }
%"class.rocksdb::InternalKeyComparator" = type { %"class.rocksdb::CompareInterface", %"class.rocksdb::UserComparatorWrapper" }
%"class.rocksdb::CompareInterface" = type { ptr }
%"class.rocksdb::UserComparatorWrapper" = type { ptr }
%"struct.rocksdb::ImmutableMemTableOptions" = type <{ i64, i32, [4 x i8], i64, i8, i8, [6 x i8], i64, ptr, i64, i8, [7 x i8], ptr, ptr, ptr, i32, i8, i8, [2 x i8] }>
%"class.std::vector.21" = type { %"struct.std::_Vector_base.22" }
%"struct.std::_Vector_base.22" = type { %"struct.std::_Vector_base<unsigned long, std::allocator<unsigned long>>::_Vector_impl" }
%"struct.std::_Vector_base<unsigned long, std::allocator<unsigned long>>::_Vector_impl" = type { %"struct.std::_Vector_base<unsigned long, std::allocator<unsigned long>>::_Vector_impl_data" }
%"struct.std::_Vector_base<unsigned long, std::allocator<unsigned long>>::_Vector_impl_data" = type { ptr, ptr, ptr }
%"class.rocksdb::MemTable" = type { %"class.rocksdb::ReadOnlyMemTable", %"struct.rocksdb::MemTable::KeyComparator", %"struct.rocksdb::ImmutableMemTableOptions", i64, %"class.rocksdb::AllocTracker", [8 x i8], %"class.rocksdb::ConcurrentArena", %"class.std::unique_ptr.132", %"class.std::unique_ptr.132", %"struct.std::atomic.130", %"struct.std::atomic", %"struct.std::atomic", %"struct.std::atomic", %"struct.std::atomic", %"struct.std::atomic", %"struct.std::atomic", %"struct.std::atomic", i64, %"struct.std::atomic", %"class.std::vector.140", ptr, %"class.std::unique_ptr.145", %"struct.std::atomic.153", ptr, ptr, %"class.std::unordered_map", %"struct.std::atomic", %"struct.std::atomic", i32, i64, i8, %"class.rocksdb::Slice", %"class.std::unique_ptr.159", %"class.std::unique_ptr.159", %"class.std::mutex", %"class.rocksdb::CoreLocalArray.167", [8 x i8] }
%"class.rocksdb::ReadOnlyMemTable" = type { ptr, i32, i8, i8, i64, %"class.rocksdb::VersionEdit", i64, i64, i64, %"class.std::unique_ptr" }
%"class.rocksdb::VersionEdit" = type { i32, %"class.std::__cxx11::basic_string", %"class.std::__cxx11::basic_string", i64, i64, i64, i32, i64, i64, i8, i8, i8, i8, i8, i8, i8, i8, i8, %"class.std::vector.83", %"class.std::set", %"class.std::vector.91", %"class.std::vector.96", %"class.std::vector.101", %"class.std::vector.106", %"class.rocksdb::WalDeletion", i32, i8, i8, %"class.std::__cxx11::basic_string", i32, i8, i8, %"class.std::__cxx11::basic_string", i8, %"class.rocksdb::autovector" }
%"class.std::vector.83" = type { %"struct.std::_Vector_base.84" }
%"struct.std::_Vector_base.84" = type { %"struct.std::_Vector_base<std::pair<int, rocksdb::InternalKey>, std::allocator<std::pair<int, rocksdb::InternalKey>>>::_Vector_impl" }
%"struct.std::_Vector_base<std::pair<int, rocksdb::InternalKey>, std::allocator<std::pair<int, rocksdb::InternalKey>>>::_Vector_impl" = type { %"struct.std::_Vector_base<std::pair<int, rocksdb::InternalKey>, std::allocator<std::pair<int, rocksdb::InternalKey>>>::_Vector_impl_data" }
%"struct.std::_Vector_base<std::pair<int, rocksdb::InternalKey>, std::allocator<std::pair<int, rocksdb::InternalKey>>>::_Vector_impl_data" = type { ptr, ptr, ptr }
%"class.std::set" = type { %"class.std::_Rb_tree" }
%"class.std::_Rb_tree" = type { %"struct.std::_Rb_tree<std::pair<int, unsigned long>, std::pair<int, unsigned long>, std::_Identity<std::pair<int, unsigned long>>, std::less<std::pair<int, unsigned long>>>::_Rb_tree_impl" }
%"struct.std::_Rb_tree<std::pair<int, unsigned long>, std::pair<int, unsigned long>, std::_Identity<std::pair<int, unsigned long>>, std::less<std::pair<int, unsigned long>>>::_Rb_tree_impl" = type { [8 x i8], %"struct.std::_Rb_tree_header" }
%"struct.std::_Rb_tree_header" = type { %"struct.std::_Rb_tree_node_base", i64 }
%"struct.std::_Rb_tree_node_base" = type { i32, ptr, ptr, ptr }
%"class.std::vector.91" = type { %"struct.std::_Vector_base.92" }
%"struct.std::_Vector_base.92" = type { %"struct.std::_Vector_base<std::pair<int, rocksdb::FileMetaData>, std::allocator<std::pair<int, rocksdb::FileMetaData>>>::_Vector_impl" }
%"struct.std::_Vector_base<std::pair<int, rocksdb::FileMetaData>, std::allocator<std::pair<int, rocksdb::FileMetaData>>>::_Vector_impl" = type { %"struct.std::_Vector_base<std::pair<int, rocksdb::FileMetaData>, std::allocator<std::pair<int, rocksdb::FileMetaData>>>::_Vector_impl_data" }
%"struct.std::_Vector_base<std::pair<int, rocksdb::FileMetaData>, std::allocator<std::pair<int, rocksdb::FileMetaData>>>::_Vector_impl_data" = type { ptr, ptr, ptr }
%"class.std::vector.96" = type { %"struct.std::_Vector_base.97" }
%"struct.std::_Vector_base.97" = type { %"struct.std::_Vector_base<rocksdb::BlobFileAddition, std::allocator<rocksdb::BlobFileAddition>>::_Vector_impl" }
%"struct.std::_Vector_base<rocksdb::BlobFileAddition, std::allocator<rocksdb::BlobFileAddition>>::_Vector_impl" = type { %"struct.std::_Vector_base<rocksdb::BlobFileAddition, std::allocator<rocksdb::BlobFileAddition>>::_Vector_impl_data" }
%"struct.std::_Vector_base<rocksdb::BlobFileAddition, std::allocator<rocksdb::BlobFileAddition>>::_Vector_impl_data" = type { ptr, ptr, ptr }
%"class.std::vector.101" = type { %"struct.std::_Vector_base.102" }
%"struct.std::_Vector_base.102" = type { %"struct.std::_Vector_base<rocksdb::BlobFileGarbage, std::allocator<rocksdb::BlobFileGarbage>>::_Vector_impl" }
%"struct.std::_Vector_base<rocksdb::BlobFileGarbage, std::allocator<rocksdb::BlobFileGarbage>>::_Vector_impl" = type { %"struct.std::_Vector_base<rocksdb::BlobFileGarbage, std::allocator<rocksdb::BlobFileGarbage>>::_Vector_impl_data" }
%"struct.std::_Vector_base<rocksdb::BlobFileGarbage, std::allocator<rocksdb::BlobFileGarbage>>::_Vector_impl_data" = type { ptr, ptr, ptr }
%"class.std::vector.106" = type { %"struct.std::_Vector_base.107" }
%"struct.std::_Vector_base.107" = type { %"struct.std::_Vector_base<rocksdb::WalAddition, std::allocator<rocksdb::WalAddition>>::_Vector_impl" }
%"struct.std::_Vector_base<rocksdb::WalAddition, std::allocator<rocksdb::WalAddition>>::_Vector_impl" = type { %"struct.std::_Vector_base<rocksdb::WalAddition, std::allocator<rocksdb::WalAddition>>::_Vector_impl_data" }
%"struct.std::_Vector_base<rocksdb::WalAddition, std::allocator<rocksdb::WalAddition>>::_Vector_impl_data" = type { ptr, ptr, ptr }
%"class.rocksdb::WalDeletion" = type { i64 }
%"class.rocksdb::autovector" = type { i64, [64 x i8], ptr, %"class.std::vector.21" }
%"class.std::unique_ptr" = type { %"struct.std::__uniq_ptr_data" }
%"struct.std::__uniq_ptr_data" = type { %"class.std::__uniq_ptr_impl" }
%"class.std::__uniq_ptr_impl" = type { %"class.std::tuple" }
%"class.std::tuple" = type { %"struct.std::_Tuple_impl" }
%"struct.std::_Tuple_impl" = type { %"struct.std::_Head_base.112" }
%"struct.std::_Head_base.112" = type { ptr }
%"struct.rocksdb::MemTable::KeyComparator" = type { %"class.rocksdb::MemTableRep::KeyComparator", %"class.rocksdb::InternalKeyComparator" }
%"class.rocksdb::MemTableRep::KeyComparator" = type { ptr }
%"class.rocksdb::AllocTracker" = type <{ ptr, %"struct.std::atomic", i8, i8, [6 x i8] }>
%"class.rocksdb::ConcurrentArena" = type { %"class.rocksdb::Allocator", [56 x i8], i64, %"class.rocksdb::CoreLocalArray", [8 x i8], %"class.rocksdb::Arena", %"class.rocksdb::SpinMutex", %"struct.std::atomic", %"struct.std::atomic", %"struct.std::atomic", [56 x i8], [8 x i8] }
%"class.rocksdb::Allocator" = type { ptr }
%"class.rocksdb::CoreLocalArray" = type <{ %"class.std::unique_ptr.113", i32, [4 x i8] }>
%"class.std::unique_ptr.113" = type { %"struct.std::__uniq_ptr_data.114" }
%"struct.std::__uniq_ptr_data.114" = type { %"class.std::__uniq_ptr_impl.115" }
%"class.std::__uniq_ptr_impl.115" = type { %"class.std::tuple.116" }
%"class.std::tuple.116" = type { %"struct.std::_Tuple_impl.117" }
%"struct.std::_Tuple_impl.117" = type { %"struct.std::_Head_base.120" }
%"struct.std::_Head_base.120" = type { ptr }
%"class.rocksdb::Arena" = type { %"class.rocksdb::Allocator", [8 x i8], [2048 x i8], i64, %"class.std::deque", %"class.std::deque.124", i64, ptr, ptr, i64, i64, i64, ptr }
%"class.std::deque" = type { %"class.std::_Deque_base" }
%"class.std::_Deque_base" = type { %"struct.std::_Deque_base<std::unique_ptr<char[]>, std::allocator<std::unique_ptr<char[]>>>::_Deque_impl" }
%"struct.std::_Deque_base<std::unique_ptr<char[]>, std::allocator<std::unique_ptr<char[]>>>::_Deque_impl" = type { %"struct.std::_Deque_base<std::unique_ptr<char[]>, std::allocator<std::unique_ptr<char[]>>>::_Deque_impl_data" }
%"struct.std::_Deque_base<std::unique_ptr<char[]>, std::allocator<std::unique_ptr<char[]>>>::_Deque_impl_data" = type { ptr, i64, %"struct.std::_Deque_iterator", %"struct.std::_Deque_iterator" }
%"struct.std::_Deque_iterator" = type { ptr, ptr, ptr, ptr }
%"class.std::deque.124" = type { %"class.std::_Deque_base.125" }
%"class.std::_Deque_base.125" = type { %"struct.std::_Deque_base<rocksdb::MemMapping, std::allocator<rocksdb::MemMapping>>::_Deque_impl" }
%"struct.std::_Deque_base<rocksdb::MemMapping, std::allocator<rocksdb::MemMapping>>::_Deque_impl" = type { %"struct.std::_Deque_base<rocksdb::MemMapping, std::allocator<rocksdb::MemMapping>>::_Deque_impl_data" }
%"struct.std::_Deque_base<rocksdb::MemMapping, std::allocator<rocksdb::MemMapping>>::_Deque_impl_data" = type { ptr, i64, %"struct.std::_Deque_iterator.129", %"struct.std::_Deque_iterator.129" }
%"struct.std::_Deque_iterator.129" = type { ptr, ptr, ptr, ptr }
%"class.rocksdb::SpinMutex" = type { %"struct.std::atomic.130" }
%"class.std::unique_ptr.132" = type { %"struct.std::__uniq_ptr_data.133" }
%"struct.std::__uniq_ptr_data.133" = type { %"class.std::__uniq_ptr_impl.134" }
%"class.std::__uniq_ptr_impl.134" = type { %"class.std::tuple.135" }
%"class.std::tuple.135" = type { %"struct.std::_Tuple_impl.136" }
%"struct.std::_Tuple_impl.136" = type { %"struct.std::_Head_base.139" }
%"struct.std::_Head_base.139" = type { ptr }
%"struct.std::atomic.130" = type { %"struct.std::__atomic_base.131" }
%"struct.std::__atomic_base.131" = type { i8 }
%"class.std::vector.140" = type { %"struct.std::_Vector_base.141" }
%"struct.std::_Vector_base.141" = type { %"struct.std::_Vector_base<rocksdb::port::RWMutex, std::allocator<rocksdb::port::RWMutex>>::_Vector_impl" }
%"struct.std::_Vector_base<rocksdb::port::RWMutex, std::allocator<rocksdb::port::RWMutex>>::_Vector_impl" = type { %"struct.std::_Vector_base<rocksdb::port::RWMutex, std::allocator<rocksdb::port::RWMutex>>::_Vector_impl_data" }
%"struct.std::_Vector_base<rocksdb::port::RWMutex, std::allocator<rocksdb::port::RWMutex>>::_Vector_impl_data" = type { ptr, ptr, ptr }
%"class.std::unique_ptr.145" = type { %"struct.std::__uniq_ptr_data.146" }
%"struct.std::__uniq_ptr_data.146" = type { %"class.std::__uniq_ptr_impl.147" }
%"class.std::__uniq_ptr_impl.147" = type { %"class.std::tuple.148" }
%"class.std::tuple.148" = type { %"struct.std::_Tuple_impl.149" }
%"struct.std::_Tuple_impl.149" = type { %"struct.std::_Head_base.152" }
%"struct.std::_Head_base.152" = type { ptr }
%"struct.std::atomic.153" = type { i32 }
%"class.std::unordered_map" = type { %"class.std::_Hashtable" }
%"class.std::_Hashtable" = type { ptr, i64, %"struct.std::__detail::_Hash_node_base", i64, %"struct.std::__detail::_Prime_rehash_policy", ptr }
%"struct.std::__detail::_Hash_node_base" = type { ptr }
%"struct.std::__detail::_Prime_rehash_policy" = type { float, i64 }
%"struct.std::atomic" = type { %"struct.std::__atomic_base" }
%"struct.std::__atomic_base" = type { i64 }
%"class.std::unique_ptr.159" = type { %"struct.std::__uniq_ptr_data.160" }
%"struct.std::__uniq_ptr_data.160" = type { %"class.std::__uniq_ptr_impl.161" }
%"class.std::__uniq_ptr_impl.161" = type { %"class.std::tuple.162" }
%"class.std::tuple.162" = type { %"struct.std::_Tuple_impl.163" }
%"struct.std::_Tuple_impl.163" = type { %"struct.std::_Head_base.166" }
%"struct.std::_Head_base.166" = type { ptr }
%"class.std::mutex" = type { %"class.std::__mutex_base" }
%"class.std::__mutex_base" = type { %union.pthread_mutex_t }
%union.pthread_mutex_t = type { %struct.__pthread_mutex_s }
%struct.__pthread_mutex_s = type { i32, i32, i32, i32, i32, i16, i16, %struct.__pthread_internal_list }
%struct.__pthread_internal_list = type { ptr, ptr }
%"class.rocksdb::CoreLocalArray.167" = type <{ %"class.std::unique_ptr.168", i32, [4 x i8] }>
%"class.std::unique_ptr.168" = type { %"struct.std::__uniq_ptr_data.169" }
%"struct.std::__uniq_ptr_data.169" = type { %"class.std::__uniq_ptr_impl.170" }
%"class.std::__uniq_ptr_impl.170" = type { %"class.std::tuple.171" }
%"class.std::tuple.171" = type { %"struct.std::_Tuple_impl.172" }
%"struct.std::_Tuple_impl.172" = type { %"struct.std::_Head_base.175" }
%"struct.std::_Head_base.175" = type { ptr }
%"struct.rocksdb::ReadOptions" = type { ptr, ptr, ptr, %"class.std::chrono::duration", %"class.std::chrono::duration", i32, i32, i64, %"class.std::optional", i8, i8, i8, i8, i8, i64, i64, ptr, ptr, i8, i8, i8, i8, i8, i8, i8, i8, %"class.std::function", i8, i8, i8, i8, i64 }
%"class.std::chrono::duration" = type { i64 }
%"class.std::optional" = type { %"struct.std::_Optional_base" }
%"struct.std::_Optional_base" = type { %"struct.std::_Optional_payload" }
%"struct.std::_Optional_payload" = type { %"struct.std::_Optional_payload_base.base", [7 x i8] }
%"struct.std::_Optional_payload_base.base" = type <{ %"union.std::_Optional_payload_base<unsigned long>::_Storage", i8 }>
%"union.std::_Optional_payload_base<unsigned long>::_Storage" = type { i64 }
%"class.std::function" = type { %"class.std::_Function_base", ptr }
%"class.std::_Function_base" = type { %"union.std::_Any_data", ptr }
%"union.std::_Any_data" = type { %"union.std::_Nocopy_types" }
%"union.std::_Nocopy_types" = type { { i64, i64 } }

; Function Attrs: noinline noreturn nounwind uwtable
define linkonce_odr hidden void @__clang_call_terminate(ptr noundef %0) #11 comdat {
  %2 = call ptr @__cxa_begin_catch(ptr %0) #6
  call void @_ZSt9terminatev() #26
  unreachable
}

; Function Attrs: mustprogress nounwind uwtable
define linkonce_odr noundef i32 @_ZStanSt12memory_orderSt23__memory_order_modifier(i32 noundef %0, i32 noundef %1) #5 comdat {
  %3 = alloca i32, align 4
  %4 = alloca i32, align 4
  store i32 %0, ptr %3, align 4, !tbaa !422
  store i32 %1, ptr %4, align 4, !tbaa !1255
  %5 = load i32, ptr %3, align 4, !tbaa !422
  %6 = load i32, ptr %4, align 4, !tbaa !1255
  %7 = and i32 %5, %6
  ret i32 %7
}

; Function Attrs: alwaysinline mustprogress nounwind uwtable
define linkonce_odr noundef zeroext i1 @_ZNKSt13__atomic_baseIbE4loadESt12memory_order(ptr noundef nonnull align 1 dereferenceable(1) %0, i32 noundef %1) #12 comdat align 2 personality ptr @__gxx_personality_v0 {
  %3 = alloca ptr, align 8
  %4 = alloca i32, align 4
  %5 = alloca i32, align 4
  %6 = alloca i8, align 1
  store ptr %0, ptr %3, align 8, !tbaa !982
  store i32 %1, ptr %4, align 4, !tbaa !422
  %7 = load ptr, ptr %3, align 8
  call void @llvm.lifetime.start.p0(i64 4, ptr %5) #6
  %8 = load i32, ptr %4, align 4, !tbaa !422
  %9 = invoke noundef i32 @_ZStanSt12memory_orderSt23__memory_order_modifier(i32 noundef %8, i32 noundef 65535)
          to label %10 unwind label %28

10:                                               ; preds = %2
  store i32 %9, ptr %5, align 4, !tbaa !422
  br label %11

11:                                               ; preds = %10
  br label %12

12:                                               ; preds = %11
  br label %13

13:                                               ; preds = %12
  br label %14

14:                                               ; preds = %13
  br label %15

15:                                               ; preds = %14
  br label %16

16:                                               ; preds = %15
  %17 = getelementptr inbounds nuw %"struct.std::__atomic_base.131", ptr %7, i32 0, i32 0
  %18 = load i32, ptr %4, align 4, !tbaa !422
  switch i32 %18, label %19 [
    i32 1, label %21
    i32 2, label %21
    i32 5, label %23
  ]

19:                                               ; preds = %16
  %20 = load atomic i8, ptr %17 monotonic, align 1
  store i8 %20, ptr %6, align 1
  br label %25

21:                                               ; preds = %16, %16
  %22 = load atomic i8, ptr %17 acquire, align 1
  store i8 %22, ptr %6, align 1
  br label %25

23:                                               ; preds = %16
  %24 = load atomic i8, ptr %17 seq_cst, align 1
  store i8 %24, ptr %6, align 1
  br label %25

25:                                               ; preds = %23, %21, %19
  %26 = load i8, ptr %6, align 1, !tbaa !396, !range !121, !noundef !122
  %27 = trunc i8 %26 to i1
  call void @llvm.lifetime.end.p0(i64 4, ptr %5) #6
  ret i1 %27

28:                                               ; preds = %2
  %29 = landingpad { ptr, i32 }
          catch ptr null
  %30 = extractvalue { ptr, i32 } %29, 0
  call void @__clang_call_terminate(ptr %30) #26
  unreachable
}

; Function Attrs: mustprogress nounwind uwtable
define linkonce_odr noundef zeroext i1 @_ZNKSt6atomicIbE4loadESt12memory_order(ptr noundef nonnull align 1 dereferenceable(1) %0, i32 noundef %1) #5 comdat align 2 {
  %3 = alloca ptr, align 8
  %4 = alloca i32, align 4
  store ptr %0, ptr %3, align 8, !tbaa !394
  store i32 %1, ptr %4, align 4, !tbaa !422
  %5 = load ptr, ptr %3, align 8
  %6 = getelementptr inbounds nuw %"struct.std::atomic.130", ptr %5, i32 0, i32 0
  %7 = load i32, ptr %4, align 4, !tbaa !422
  %8 = call noundef zeroext i1 @_ZNKSt13__atomic_baseIbE4loadESt12memory_order(ptr noundef nonnull align 1 dereferenceable(1) %6, i32 noundef %7) #6
  ret i1 %8
}

; Function Attrs: mustprogress uwtable
define noundef ptr @_ZN7rocksdb8MemTable25NewRangeTombstoneIteratorERKNS_11ReadOptionsEmb(ptr noundef nonnull align 16 dereferenceable(3552) %0, ptr noundef nonnull align 8 dereferenceable(168) %1, i64 noundef %2, i1 noundef zeroext %3) unnamed_addr #4 align 2 {
  %5 = alloca ptr, align 8
  %6 = alloca ptr, align 8
  %7 = alloca ptr, align 8
  %8 = alloca i64, align 8
  %9 = alloca i8, align 1
  store ptr %0, ptr %6, align 8, !tbaa !216
  store ptr %1, ptr %7, align 8, !tbaa !488
  store i64 %2, ptr %8, align 8, !tbaa !4
  %10 = zext i1 %3 to i8
  store i8 %10, ptr %9, align 1, !tbaa !396
  %11 = load ptr, ptr %6, align 8
  %12 = load ptr, ptr %7, align 8, !tbaa !488
  %13 = getelementptr inbounds nuw %"struct.rocksdb::ReadOptions", ptr %12, i32 0, i32 11
  %14 = load i8, ptr %13, align 2, !tbaa !553, !range !121, !noundef !122
  %15 = trunc i8 %14 to i1
  br i1 %15, label %19, label %16

16:                                               ; preds = %4
  %17 = getelementptr inbounds nuw %"class.rocksdb::MemTable", ptr %11, i32 0, i32 9
  %18 = call noundef zeroext i1 @_ZNKSt6atomicIbE4loadESt12memory_order(ptr noundef nonnull align 1 dereferenceable(1) %17, i32 noundef 0) #6
  br i1 %18, label %19, label %20

19:                                               ; preds = %16, %4
  store ptr null, ptr %5, align 8
  br label %26

20:                                               ; preds = %16
  %21 = load ptr, ptr %7, align 8, !tbaa !488
  %22 = load i64, ptr %8, align 8, !tbaa !4
  %23 = load i8, ptr %9, align 1, !tbaa !396, !range !121, !noundef !122
  %24 = trunc i8 %23 to i1
  %25 = call noundef ptr @_ZN7rocksdb8MemTable33NewRangeTombstoneIteratorInternalERKNS_11ReadOptionsEmb(ptr noundef nonnull align 16 dereferenceable(3552) %11, ptr noundef nonnull align 8 dereferenceable(168) %21, i64 noundef %22, i1 noundef zeroext %24)
  store ptr %25, ptr %5, align 8
  br label %26

26:                                               ; preds = %20, %19
  %27 = load ptr, ptr %5, align 8
  ret ptr %27
}