; Function Attrs: mustprogress uwtable
define noundef ptr @_ZN7rocksdb8MemTable25NewRangeTombstoneIteratorERKNS_11ReadOptionsEmb(ptr noundef nonnull align 16 dereferenceable(3552) %0, ptr noundef nonnull readonly align 8 captures(none) dereferenceable(168) %1, i64 noundef %2, i1 noundef zeroext %3) unnamed_addr #4 align 2 personality ptr @__gxx_personality_v0 {
  %5 = getelementptr inbounds nuw i8, ptr %1, i64 74
  %6 = load i8, ptr %5, align 2, !tbaa !513, !range !82, !noundef !83
  %7 = trunc nuw i8 %6 to i1
  br i1 %7, label %14, label %8

8:                                                ; preds = %4
  %9 = getelementptr inbounds nuw i8, ptr %0, i64 3216
  %10 = load atomic i8, ptr %9 monotonic, align 16
  %11 = trunc i8 %10 to i1
  br i1 %11, label %14, label %12

12:                                               ; preds = %8
  %13 = tail call noundef ptr @_ZN7rocksdb8MemTable33NewRangeTombstoneIteratorInternalERKNS_11ReadOptionsEmb(ptr noundef nonnull align 16 dereferenceable(3552) %0, ptr noundef nonnull align 8 dereferenceable(168) %1, i64 noundef %2, i1 noundef zeroext %3)
  br label %14

14:                                               ; preds = %4, %8, %12
  %.0 = phi ptr [ %13, %12 ], [ null, %8 ], [ null, %4 ]
  ret ptr %.0
}